; ModuleID = 'source-C-CXX/44/2351.c'
source_filename = "source-C-CXX/44/2351.c"
target datalayout = "e-m:e-p270:32:32-p271:32:32-p272:64:64-i64:64-f80:128-n8:16:32:64-S128"
target triple = "x86_64-pc-linux-gnu"

@.str = private unnamed_addr constant [5 x i8] c"%s%s\00", align 1
@.str.1 = private unnamed_addr constant [3 x i8] c"%d\00", align 1

; Function Attrs: nofree nounwind sspstrong uwtable
define dso_local i32 @main() local_unnamed_addr #0 {
  %1 = alloca [50 x i8], align 16
  %2 = alloca [50 x i8], align 16
  %3 = getelementptr inbounds [50 x i8], [50 x i8]* %1, i64 0, i64 0
  call void @llvm.lifetime.start.p0i8(i64 50, i8* nonnull %3) #4
  %4 = getelementptr inbounds [50 x i8], [50 x i8]* %2, i64 0, i64 0
  call void @llvm.lifetime.start.p0i8(i64 50, i8* nonnull %4) #4
  %5 = call i32 (i8*, ...) @__isoc99_scanf(i8* getelementptr inbounds ([5 x i8], [5 x i8]* @.str, i64 0, i64 0), i8* nonnull %3, i8* nonnull %4)
  %6 = call i64 @strlen(i8* noundef nonnull %3) #5
  %7 = trunc i64 %6 to i32
  %8 = load i8, i8* %3, align 16
  %9 = shl i64 %6, 32
  %10 = add i64 %9, -4294967296
  %11 = ashr exact i64 %10, 32
  %12 = getelementptr inbounds [50 x i8], [50 x i8]* %2, i64 0, i64 %11
  %13 = load i8, i8* %12, align 1, !tbaa !5
  %14 = icmp eq i8 %13, 0
  br i1 %14, label %57, label %15

15:                                               ; preds = %0
  %16 = icmp sgt i32 %7, 0
  br i1 %16, label %17, label %20

17:                                               ; preds = %15
  %18 = shl i64 %6, 32
  %19 = ashr exact i64 %18, 32
  br label %22

20:                                               ; preds = %15
  %21 = icmp eq i32 %7, 0
  br i1 %21, label %46, label %57

22:                                               ; preds = %17, %49
  %23 = phi i64 [ 0, %17 ], [ %50, %49 ]
  %24 = getelementptr inbounds [50 x i8], [50 x i8]* %2, i64 0, i64 %23
  %25 = load i8, i8* %24, align 1, !tbaa !5
  %26 = icmp eq i8 %25, %8
  br i1 %26, label %27, label %41

27:                                               ; preds = %22, %27
  %28 = phi i64 [ %31, %27 ], [ 0, %22 ]
  %29 = phi i64 [ %30, %27 ], [ %23, %22 ]
  %30 = add nuw nsw i64 %29, 1
  %31 = add nuw nsw i64 %28, 1
  %32 = getelementptr inbounds [50 x i8], [50 x i8]* %2, i64 0, i64 %30
  %33 = load i8, i8* %32, align 1, !tbaa !5
  %34 = getelementptr inbounds [50 x i8], [50 x i8]* %1, i64 0, i64 %31
  %35 = load i8, i8* %34, align 1, !tbaa !5
  %36 = icmp eq i8 %33, %35
  %37 = icmp slt i64 %31, %19
  %38 = select i1 %36, i1 %37, i1 false
  br i1 %38, label %27, label %39, !llvm.loop !8

39:                                               ; preds = %27
  %40 = trunc i64 %31 to i32
  br label %41

41:                                               ; preds = %39, %22
  %42 = phi i32 [ 0, %22 ], [ %40, %39 ]
  %43 = icmp eq i32 %42, %7
  br i1 %43, label %44, label %49

44:                                               ; preds = %41
  %45 = trunc i64 %23 to i32
  br label %46

46:                                               ; preds = %44, %20
  %47 = phi i32 [ 0, %20 ], [ %45, %44 ]
  %48 = call i32 (i8*, ...) @printf(i8* nonnull dereferenceable(1) getelementptr inbounds ([3 x i8], [3 x i8]* @.str.1, i64 0, i64 0), i32 %47)
  br label %57

49:                                               ; preds = %41
  %50 = add nuw nsw i64 %23, 1
  %51 = add i64 %23, %6
  %52 = shl i64 %51, 32
  %53 = ashr exact i64 %52, 32
  %54 = getelementptr inbounds [50 x i8], [50 x i8]* %2, i64 0, i64 %53
  %55 = load i8, i8* %54, align 1, !tbaa !5
  %56 = icmp eq i8 %55, 0
  br i1 %56, label %57, label %22, !llvm.loop !10

57:                                               ; preds = %49, %20, %0, %46
  call void @llvm.lifetime.end.p0i8(i64 50, i8* nonnull %4) #4
  call void @llvm.lifetime.end.p0i8(i64 50, i8* nonnull %3) #4
  ret i32 0
}

; Function Attrs: argmemonly mustprogress nofree nosync nounwind willreturn
declare void @llvm.lifetime.start.p0i8(i64 immarg, i8* nocapture) #1

; Function Attrs: nofree nounwind
declare noundef i32 @__isoc99_scanf(i8* nocapture noundef readonly, ...) local_unnamed_addr #2

; Function Attrs: argmemonly mustprogress nofree nounwind readonly willreturn
declare i64 @strlen(i8* nocapture) local_unnamed_addr #3

; Function Attrs: nofree nounwind
declare noundef i32 @printf(i8* nocapture noundef readonly, ...) local_unnamed_addr #2

; Function Attrs: argmemonly mustprogress nofree nosync nounwind willreturn
declare void @llvm.lifetime.end.p0i8(i64 immarg, i8* nocapture) #1


!llvm.module.flags = !{!0, !1, !2, !3}
!llvm.ident = !{!4}

!0 = !{i32 1, !"wchar_size", i32 4}
!1 = !{i32 7, !"PIC Level", i32 2}
!2 = !{i32 7, !"PIE Level", i32 2}
!3 = !{i32 7, !"uwtable", i32 1}
!4 = !{!"clang version 13.0.0"}
!5 = !{!6, !6, i64 0}
!6 = !{!"omnipotent char", !7, i64 0}
!7 = !{!"Simple C/C++ TBAA"}
!8 = distinct !{!8, !9}
!9 = !{!"llvm.loop.mustprogress"}
!10 = distinct !{!10, !9}
